target datalayout = "e-m:e-p270:32:32-p271:32:32-p272:64:64-i64:64-i128:128-f80:128-n8:16:32:64-S128"
target triple = "x86_64-pc-linux-gnu"

%"class.zxing::Ref.9" = type { ptr }

; Function Attrs: mustprogress nounwind uwtable
define linkonce_odr hidden noundef ptr @_ZNK5zxing3RefINS_9BitMatrixEEptEv(ptr noundef nonnull align 8 dereferenceable(8) %0) #4 comdat align 2 {
  %2 = alloca ptr, align 8
  store ptr %0, ptr %2, align 8, !tbaa !69
  %3 = load ptr, ptr %2, align 8
  %4 = getelementptr inbounds nuw %"class.zxing::Ref.9", ptr %3, i32 0, i32 0
  %5 = load ptr, ptr %4, align 8, !tbaa !73
  ret ptr %5
}

; Function Attrs: mustprogress nounwind uwtable
define linkonce_odr hidden noundef nonnull align 8 dereferenceable(346) ptr @_ZN5zxing3RefINS_9BitMatrixEEdeEv(ptr noundef nonnull align 8 dereferenceable(8) %0) #4 comdat align 2 {
  %2 = alloca ptr, align 8
  store ptr %0, ptr %2, align 8, !tbaa !69
  %3 = load ptr, ptr %2, align 8
  %4 = getelementptr inbounds nuw %"class.zxing::Ref.9", ptr %3, i32 0, i32 0
  %5 = load ptr, ptr %4, align 8, !tbaa !73
  ret ptr %5
}

; Function Attrs: mustprogress uwtable
define hidden void @_ZN5zxing6qrcode12QRCodeReader12initIntegralEPjNS_3RefINS_9BitMatrixEEE(ptr noundef %0, ptr noundef %1) #3 align 2 {
  %3 = alloca ptr, align 8
  %4 = alloca ptr, align 8
  %5 = alloca ptr, align 8
  %6 = alloca i32, align 4
  %7 = alloca i32, align 4
  %8 = alloca ptr, align 8
  %9 = alloca i32, align 4
  %10 = alloca i32, align 4
  %11 = alloca i32, align 4
  %12 = alloca i32, align 4
  %13 = alloca i32, align 4
  %14 = alloca i32, align 4
  store ptr %0, ptr %3, align 8, !tbaa !206
  store ptr %1, ptr %4, align 8, !tbaa !69
  call void @llvm.lifetime.start.p0(i64 8, ptr %5) #2
  %15 = call noundef nonnull align 8 dereferenceable(346) ptr @_ZN5zxing3RefINS_9BitMatrixEEdeEv(ptr noundef nonnull align 8 dereferenceable(8) %1)
  store ptr %15, ptr %5, align 8, !tbaa !71
  call void @llvm.lifetime.start.p0(i64 4, ptr %6) #2
  %16 = call noundef ptr @_ZNK5zxing3RefINS_9BitMatrixEEptEv(ptr noundef nonnull align 8 dereferenceable(8) %1)
  %17 = call noundef i32 @_ZNK5zxing9BitMatrix8getWidthEv(ptr noundef nonnull align 8 dereferenceable(346) %16)
  store i32 %17, ptr %6, align 4, !tbaa !75
  call void @llvm.lifetime.start.p0(i64 4, ptr %7) #2
  %18 = call noundef ptr @_ZNK5zxing3RefINS_9BitMatrixEEptEv(ptr noundef nonnull align 8 dereferenceable(8) %1)
  %19 = call noundef i32 @_ZNK5zxing9BitMatrix9getHeightEv(ptr noundef nonnull align 8 dereferenceable(346) %18)
  store i32 %19, ptr %7, align 4, !tbaa !75
  call void @llvm.lifetime.start.p0(i64 8, ptr %8) #2
  store ptr null, ptr %8, align 8, !tbaa !135
  %20 = load ptr, ptr %5, align 8, !tbaa !71
  %21 = call noundef ptr @_ZN5zxing9BitMatrix13getRowBoolPtrEi(ptr noundef nonnull align 8 dereferenceable(346) %20, i32 noundef 0)
  store ptr %21, ptr %8, align 8, !tbaa !135
  call void @llvm.lifetime.start.p0(i64 4, ptr %9) #2
  store i32 0, ptr %9, align 4, !tbaa !75
  call void @llvm.lifetime.start.p0(i64 4, ptr %10) #2
  store i32 0, ptr %10, align 4, !tbaa !75
  br label %22

22:                                               ; preds = %42, %2
  %23 = load i32, ptr %10, align 4, !tbaa !75
  %24 = load i32, ptr %6, align 4, !tbaa !75
  %25 = icmp slt i32 %23, %24
  br i1 %25, label %27, label %26

26:                                               ; preds = %22
  call void @llvm.lifetime.end.p0(i64 4, ptr %10) #2
  br label %45

27:                                               ; preds = %22
  %28 = load ptr, ptr %8, align 8, !tbaa !135
  %29 = load i32, ptr %10, align 4, !tbaa !75
  %30 = sext i32 %29 to i64
  %31 = getelementptr inbounds i8, ptr %28, i64 %30
  %32 = load i8, ptr %31, align 1, !tbaa !45, !range !46, !noundef !47
  %33 = trunc i8 %32 to i1
  %34 = zext i1 %33 to i32
  %35 = load i32, ptr %9, align 4, !tbaa !75
  %36 = add nsw i32 %35, %34
  store i32 %36, ptr %9, align 4, !tbaa !75
  %37 = load i32, ptr %9, align 4, !tbaa !75
  %38 = load ptr, ptr %3, align 8, !tbaa !206
  %39 = load i32, ptr %10, align 4, !tbaa !75
  %40 = sext i32 %39 to i64
  %41 = getelementptr inbounds i32, ptr %38, i64 %40
  store i32 %37, ptr %41, align 4, !tbaa !75
  br label %42

42:                                               ; preds = %27
  %43 = load i32, ptr %10, align 4, !tbaa !75
  %44 = add nsw i32 %43, 1
  store i32 %44, ptr %10, align 4, !tbaa !75
  br label %22, !llvm.loop !230

45:                                               ; preds = %26
  call void @llvm.lifetime.start.p0(i64 4, ptr %11) #2
  store i32 0, ptr %11, align 4, !tbaa !75
  call void @llvm.lifetime.start.p0(i64 4, ptr %12) #2
  store i32 1, ptr %12, align 4, !tbaa !75
  br label %46

46:                                               ; preds = %94, %45
  %47 = load i32, ptr %12, align 4, !tbaa !75
  %48 = load i32, ptr %7, align 4, !tbaa !75
  %49 = icmp slt i32 %47, %48
  br i1 %49, label %51, label %50

50:                                               ; preds = %46
  store i32 5, ptr %13, align 4
  call void @llvm.lifetime.end.p0(i64 4, ptr %12) #2
  br label %97

51:                                               ; preds = %46
  %52 = load ptr, ptr %5, align 8, !tbaa !71
  %53 = load i32, ptr %12, align 4, !tbaa !75
  %54 = call noundef ptr @_ZN5zxing9BitMatrix13getRowBoolPtrEi(ptr noundef nonnull align 8 dereferenceable(346) %52, i32 noundef %53)
  store ptr %54, ptr %8, align 8, !tbaa !135
  store i32 0, ptr %9, align 4, !tbaa !75
  %55 = load i32, ptr %6, align 4, !tbaa !75
  %56 = load i32, ptr %11, align 4, !tbaa !75
  %57 = add nsw i32 %56, %55
  store i32 %57, ptr %11, align 4, !tbaa !75
  call void @llvm.lifetime.start.p0(i64 4, ptr %14) #2
  store i32 0, ptr %14, align 4, !tbaa !75
  br label %58

58:                                               ; preds = %90, %51
  %59 = load i32, ptr %14, align 4, !tbaa !75
  %60 = load i32, ptr %6, align 4, !tbaa !75
  %61 = icmp slt i32 %59, %60
  br i1 %61, label %63, label %62

62:                                               ; preds = %58
  store i32 8, ptr %13, align 4
  call void @llvm.lifetime.end.p0(i64 4, ptr %14) #2
  br label %93

63:                                               ; preds = %58
  %64 = load ptr, ptr %8, align 8, !tbaa !135
  %65 = load i32, ptr %14, align 4, !tbaa !75
  %66 = sext i32 %65 to i64
  %67 = getelementptr inbounds i8, ptr %64, i64 %66
  %68 = load i8, ptr %67, align 1, !tbaa !45, !range !46, !noundef !47
  %69 = trunc i8 %68 to i1
  %70 = zext i1 %69 to i32
  %71 = load i32, ptr %9, align 4, !tbaa !75
  %72 = add nsw i32 %71, %70
  store i32 %72, ptr %9, align 4, !tbaa !75
  %73 = load i32, ptr %9, align 4, !tbaa !75
  %74 = load ptr, ptr %3, align 8, !tbaa !206
  %75 = load i32, ptr %11, align 4, !tbaa !75
  %76 = load i32, ptr %6, align 4, !tbaa !75
  %77 = sub nsw i32 %75, %76
  %78 = load i32, ptr %14, align 4, !tbaa !75
  %79 = add nsw i32 %77, %78
  %80 = sext i32 %79 to i64
  %81 = getelementptr inbounds i32, ptr %74, i64 %80
  %82 = load i32, ptr %81, align 4, !tbaa !75
  %83 = add i32 %73, %82
  %84 = load ptr, ptr %3, align 8, !tbaa !206
  %85 = load i32, ptr %11, align 4, !tbaa !75
  %86 = load i32, ptr %14, align 4, !tbaa !75
  %87 = add nsw i32 %85, %86
  %88 = sext i32 %87 to i64
  %89 = getelementptr inbounds i32, ptr %84, i64 %88
  store i32 %83, ptr %89, align 4, !tbaa !75
  br label %90

90:                                               ; preds = %63
  %91 = load i32, ptr %14, align 4, !tbaa !75
  %92 = add nsw i32 %91, 1
  store i32 %92, ptr %14, align 4, !tbaa !75
  br label %58, !llvm.loop !231

93:                                               ; preds = %62
  br label %94

94:                                               ; preds = %93
  %95 = load i32, ptr %12, align 4, !tbaa !75
  %96 = add nsw i32 %95, 1
  store i32 %96, ptr %12, align 4, !tbaa !75
  br label %46, !llvm.loop !232

97:                                               ; preds = %50
  store i32 1, ptr %13, align 4
  call void @llvm.lifetime.end.p0(i64 4, ptr %11) #2
  call void @llvm.lifetime.end.p0(i64 4, ptr %9) #2
  call void @llvm.lifetime.end.p0(i64 8, ptr %8) #2
  call void @llvm.lifetime.end.p0(i64 4, ptr %7) #2
  call void @llvm.lifetime.end.p0(i64 4, ptr %6) #2
  call void @llvm.lifetime.end.p0(i64 8, ptr %5) #2
  ret void
}