; Function Attrs: mustprogress uwtable
define hidden void @_ZN5zxing6qrcode12QRCodeReader12initIntegralEPjNS_3RefINS_9BitMatrixEEE(ptr noundef captures(none) %0, ptr noundef readonly captures(none) %1) local_unnamed_addr #2 align 2 {
  %3 = load ptr, ptr %1, align 8, !tbaa !42
  %4 = tail call noundef i32 @_ZNK5zxing9BitMatrix8getWidthEv(ptr noundef nonnull align 8 dereferenceable(346) %3)
  %5 = load ptr, ptr %1, align 8, !tbaa !42
  %6 = tail call noundef i32 @_ZNK5zxing9BitMatrix9getHeightEv(ptr noundef nonnull align 8 dereferenceable(346) %5)
  %7 = tail call noundef ptr @_ZN5zxing9BitMatrix13getRowBoolPtrEi(ptr noundef nonnull align 8 dereferenceable(346) %3, i32 noundef 0)
  %8 = icmp sgt i32 %4, 0
  br i1 %8, label %.lr.ph.preheader, label %.preheader.thread

.lr.ph.preheader:                                 ; preds = %2
  %wide.trip.count = zext nneg i32 %4 to i64
  br label %.lr.ph

.preheader:                                       ; preds = %.lr.ph
  %9 = icmp sgt i32 %6, 1
  br i1 %9, label %.lr.ph39.us.preheader, label %._crit_edge43

.preheader.thread:                                ; preds = %2
  %10 = icmp sgt i32 %6, 1
  br i1 %10, label %.lr.ph42.split, label %._crit_edge43

.lr.ph39.us.preheader:                            ; preds = %.preheader
  %11 = zext nneg i32 %4 to i64
  br label %.lr.ph39.us

.lr.ph39.us:                                      ; preds = %.lr.ph39.us.preheader, %._crit_edge.us
  %indvars.iv52 = phi i64 [ 0, %.lr.ph39.us.preheader ], [ %indvars.iv.next53, %._crit_edge.us ]
  %.03041.us = phi i32 [ 1, %.lr.ph39.us.preheader ], [ %20, %._crit_edge.us ]
  %12 = tail call noundef ptr @_ZN5zxing9BitMatrix13getRowBoolPtrEi(ptr noundef nonnull align 8 dereferenceable(346) %3, i32 noundef %.03041.us)
  %indvars.iv.next53 = add nuw nsw i64 %indvars.iv52, %11
  %invariant.gep = getelementptr inbounds nuw i32, ptr %0, i64 %indvars.iv52
  %invariant.gep57 = getelementptr inbounds nuw i32, ptr %0, i64 %indvars.iv.next53
  br label %13

13:                                               ; preds = %.lr.ph39.us, %13
  %indvars.iv47 = phi i64 [ 0, %.lr.ph39.us ], [ %indvars.iv.next48, %13 ]
  %.137.us = phi i32 [ 0, %.lr.ph39.us ], [ %17, %13 ]
  %14 = getelementptr inbounds nuw i8, ptr %12, i64 %indvars.iv47
  %15 = load i8, ptr %14, align 1, !tbaa !58, !range !147, !noundef !148
  %16 = zext nneg i8 %15 to i32
  %17 = add nuw nsw i32 %.137.us, %16
  %gep = getelementptr inbounds nuw i32, ptr %invariant.gep, i64 %indvars.iv47
  %18 = load i32, ptr %gep, align 4, !tbaa !155
  %19 = add i32 %17, %18
  %gep58 = getelementptr inbounds nuw i32, ptr %invariant.gep57, i64 %indvars.iv47
  store i32 %19, ptr %gep58, align 4, !tbaa !155
  %indvars.iv.next48 = add nuw nsw i64 %indvars.iv47, 1
  %exitcond51.not = icmp eq i64 %indvars.iv.next48, %11
  br i1 %exitcond51.not, label %._crit_edge.us, label %13, !llvm.loop !196

._crit_edge.us:                                   ; preds = %13
  %20 = add nuw nsw i32 %.03041.us, 1
  %exitcond55.not = icmp eq i32 %20, %6
  br i1 %exitcond55.not, label %._crit_edge43, label %.lr.ph39.us, !llvm.loop !197

.lr.ph:                                           ; preds = %.lr.ph.preheader, %.lr.ph
  %indvars.iv = phi i64 [ 0, %.lr.ph.preheader ], [ %indvars.iv.next, %.lr.ph ]
  %.03335 = phi i32 [ 0, %.lr.ph.preheader ], [ %24, %.lr.ph ]
  %21 = getelementptr inbounds nuw i8, ptr %7, i64 %indvars.iv
  %22 = load i8, ptr %21, align 1, !tbaa !58, !range !147, !noundef !148
  %23 = zext nneg i8 %22 to i32
  %24 = add nuw nsw i32 %.03335, %23
  %25 = getelementptr inbounds nuw i32, ptr %0, i64 %indvars.iv
  store i32 %24, ptr %25, align 4, !tbaa !155
  %indvars.iv.next = add nuw nsw i64 %indvars.iv, 1
  %exitcond.not = icmp eq i64 %indvars.iv.next, %wide.trip.count
  br i1 %exitcond.not, label %.preheader, label %.lr.ph, !llvm.loop !198

._crit_edge43:                                    ; preds = %.lr.ph42.split, %._crit_edge.us, %.preheader.thread, %.preheader
  ret void

.lr.ph42.split:                                   ; preds = %.preheader.thread, %.lr.ph42.split
  %.03041 = phi i32 [ %27, %.lr.ph42.split ], [ 1, %.preheader.thread ]
  %26 = tail call noundef ptr @_ZN5zxing9BitMatrix13getRowBoolPtrEi(ptr noundef nonnull align 8 dereferenceable(346) %3, i32 noundef %.03041)
  %27 = add nuw nsw i32 %.03041, 1
  %exitcond46.not = icmp eq i32 %27, %6
  br i1 %exitcond46.not, label %._crit_edge43, label %.lr.ph42.split, !llvm.loop !197
}